target datalayout = "e-m:e-p270:32:32-p271:32:32-p272:64:64-i64:64-i128:128-f80:128-n8:16:32:64-S128"
target triple = "x86_64-pc-linux-gnu"

%struct._typeobject = type { %struct.PyVarObject, ptr, i64, i64, ptr, i64, ptr, ptr, ptr, ptr, ptr, ptr, ptr, ptr, ptr, ptr, ptr, ptr, ptr, i64, ptr, ptr, ptr, ptr, i64, ptr, ptr, ptr, ptr, ptr, ptr, ptr, ptr, ptr, i64, ptr, ptr, ptr, ptr, ptr, ptr, ptr, ptr, ptr, ptr, ptr, i32, ptr, ptr, i8, i16 }
%struct.PyVarObject = type { %struct._object, i64 }
%struct._object = type { %union.anon, ptr }
%union.anon = type { i64 }
%struct._PyJumpTargetLabel = type { i32 }
%struct._PyCfgBuilder = type { ptr, ptr, ptr, %struct._PyJumpTargetLabel }
%struct._PyCfgBasicblock = type { ptr, %struct._PyJumpTargetLabel, ptr, ptr, ptr, i32, i32, i64, i32, i32, i8 }
%struct.anon = type { i32, i32 }

@_PyInstructionSequence_Type = external global %struct._typeobject, align 8
@PyExc_ValueError = external global ptr, align 8
@.str = private unnamed_addr constant [33 x i8] c"expected an instruction sequence\00", align 1

; Function Attrs: alwaysinline nounwind uwtable
define internal i32 @_Py_IsImmortal(ptr noundef %0) #6 {
  %2 = alloca ptr, align 8
  store ptr %0, ptr %2, align 8, !tbaa !36
  %3 = load ptr, ptr %2, align 8, !tbaa !36
  %4 = getelementptr inbounds nuw %struct._object, ptr %3, i32 0, i32 0
  %5 = getelementptr inbounds nuw %struct.anon, ptr %4, i32 0, i32 0
  %6 = load i32, ptr %5, align 8, !tbaa !126
  %7 = icmp slt i32 %6, 0
  %8 = zext i1 %7 to i32
  ret i32 %8
}

; Function Attrs: inlinehint nounwind uwtable
define internal ptr @_Py_TYPE(ptr noundef %0) #5 {
  %2 = alloca ptr, align 8
  store ptr %0, ptr %2, align 8, !tbaa !36
  %3 = load ptr, ptr %2, align 8, !tbaa !36
  %4 = getelementptr inbounds nuw %struct._object, ptr %3, i32 0, i32 1
  %5 = load ptr, ptr %4, align 8, !tbaa !211
  ret ptr %5
}

; Function Attrs: nounwind uwtable
define hidden void @_PyCfgBuilder_Free(ptr noundef %0) #0 {
  %2 = alloca ptr, align 8
  %3 = alloca ptr, align 8
  %4 = alloca ptr, align 8
  store ptr %0, ptr %2, align 8, !tbaa !4
  %5 = load ptr, ptr %2, align 8, !tbaa !4
  %6 = icmp eq ptr %5, null
  br i1 %6, label %7, label %8

7:                                                ; preds = %1
  br label %32

8:                                                ; preds = %1
  call void @llvm.lifetime.start.p0(i64 8, ptr %3) #7
  %9 = load ptr, ptr %2, align 8, !tbaa !4
  %10 = getelementptr inbounds nuw %struct._PyCfgBuilder, ptr %9, i32 0, i32 1
  %11 = load ptr, ptr %10, align 8, !tbaa !9
  store ptr %11, ptr %3, align 8, !tbaa !14
  br label %12

12:                                               ; preds = %24, %8
  %13 = load ptr, ptr %3, align 8, !tbaa !14
  %14 = icmp ne ptr %13, null
  br i1 %14, label %15, label %30

15:                                               ; preds = %12
  %16 = load ptr, ptr %3, align 8, !tbaa !14
  %17 = getelementptr inbounds nuw %struct._PyCfgBasicblock, ptr %16, i32 0, i32 3
  %18 = load ptr, ptr %17, align 8, !tbaa !20
  %19 = icmp ne ptr %18, null
  br i1 %19, label %20, label %24

20:                                               ; preds = %15
  %21 = load ptr, ptr %3, align 8, !tbaa !14
  %22 = getelementptr inbounds nuw %struct._PyCfgBasicblock, ptr %21, i32 0, i32 3
  %23 = load ptr, ptr %22, align 8, !tbaa !20
  call void @PyMem_Free(ptr noundef %23)
  br label %24

24:                                               ; preds = %20, %15
  call void @llvm.lifetime.start.p0(i64 8, ptr %4) #7
  %25 = load ptr, ptr %3, align 8, !tbaa !14
  %26 = getelementptr inbounds nuw %struct._PyCfgBasicblock, ptr %25, i32 0, i32 0
  %27 = load ptr, ptr %26, align 8, !tbaa !25
  store ptr %27, ptr %4, align 8, !tbaa !14
  %28 = load ptr, ptr %3, align 8, !tbaa !14
  call void @PyMem_Free(ptr noundef %28)
  %29 = load ptr, ptr %4, align 8, !tbaa !14
  store ptr %29, ptr %3, align 8, !tbaa !14
  call void @llvm.lifetime.end.p0(i64 8, ptr %4) #7
  br label %12, !llvm.loop !26

30:                                               ; preds = %12
  %31 = load ptr, ptr %2, align 8, !tbaa !4
  call void @PyMem_Free(ptr noundef %31)
  call void @llvm.lifetime.end.p0(i64 8, ptr %3) #7
  br label %32

32:                                               ; preds = %30, %7
  ret void
}

; Function Attrs: alwaysinline nounwind uwtable
define internal void @Py_DECREF(ptr noundef %0) #6 {
  %2 = alloca ptr, align 8
  store ptr %0, ptr %2, align 8, !tbaa !36
  %3 = load ptr, ptr %2, align 8, !tbaa !36
  %4 = call i32 @_Py_IsImmortal(ptr noundef %3)
  %5 = icmp ne i32 %4, 0
  br i1 %5, label %6, label %7

6:                                                ; preds = %1
  br label %16

7:                                                ; preds = %1
  %8 = load ptr, ptr %2, align 8, !tbaa !36
  %9 = getelementptr inbounds nuw %struct._object, ptr %8, i32 0, i32 0
  %10 = getelementptr inbounds nuw %struct.anon, ptr %9, i32 0, i32 0
  %11 = load i32, ptr %10, align 8, !tbaa !126
  %12 = add i32 %11, -1
  store i32 %12, ptr %10, align 8, !tbaa !126
  %13 = icmp eq i32 %12, 0
  br i1 %13, label %14, label %16

14:                                               ; preds = %7
  %15 = load ptr, ptr %2, align 8, !tbaa !36
  call void @_Py_Dealloc(ptr noundef %15)
  br label %16

16:                                               ; preds = %6, %14, %7
  ret void
}

; Function Attrs: nounwind uwtable
define internal ptr @cfg_to_instruction_sequence(ptr noundef %0) #0 {
  %2 = alloca ptr, align 8
  %3 = alloca ptr, align 8
  %4 = alloca ptr, align 8
  %5 = alloca i32, align 4
  store ptr %0, ptr %3, align 8, !tbaa !4
  call void @llvm.lifetime.start.p0(i64 8, ptr %4) #7
  %6 = call ptr @_PyInstructionSequence_New()
  store ptr %6, ptr %4, align 8, !tbaa !87
  %7 = load ptr, ptr %4, align 8, !tbaa !87
  %8 = icmp eq ptr %7, null
  br i1 %8, label %9, label %10

9:                                                ; preds = %1
  store ptr null, ptr %2, align 8
  store i32 1, ptr %5, align 4
  br label %19

10:                                               ; preds = %1
  %11 = load ptr, ptr %3, align 8, !tbaa !4
  %12 = load ptr, ptr %4, align 8, !tbaa !87
  %13 = call i32 @_PyCfg_ToInstructionSequence(ptr noundef %11, ptr noundef %12)
  %14 = icmp slt i32 %13, 0
  br i1 %14, label %15, label %17

15:                                               ; preds = %10
  %16 = load ptr, ptr %4, align 8, !tbaa !87
  call void @PyInstructionSequence_Fini(ptr noundef %16)
  store ptr null, ptr %2, align 8
  store i32 1, ptr %5, align 4
  br label %19

17:                                               ; preds = %10
  %18 = load ptr, ptr %4, align 8, !tbaa !87
  store ptr %18, ptr %2, align 8
  store i32 1, ptr %5, align 4
  br label %19

19:                                               ; preds = %17, %15, %9
  call void @llvm.lifetime.end.p0(i64 8, ptr %4) #7
  %20 = load ptr, ptr %2, align 8
  ret ptr %20
}

; Function Attrs: inlinehint nounwind uwtable
define internal i32 @Py_IS_TYPE(ptr noundef %0, ptr noundef %1) #5 {
  %3 = alloca ptr, align 8
  %4 = alloca ptr, align 8
  store ptr %0, ptr %3, align 8, !tbaa !36
  store ptr %1, ptr %4, align 8, !tbaa !127
  %5 = load ptr, ptr %3, align 8, !tbaa !36
  %6 = call ptr @_Py_TYPE(ptr noundef %5)
  %7 = load ptr, ptr %4, align 8, !tbaa !127
  %8 = icmp eq ptr %6, %7
  %9 = zext i1 %8 to i32
  ret i32 %9
}

; Function Attrs: nounwind uwtable
define dso_local ptr @_PyCompile_OptimizeCfg(ptr noundef %0, ptr noundef %1, i32 noundef %2) #0 {
  %4 = alloca ptr, align 8
  %5 = alloca ptr, align 8
  %6 = alloca ptr, align 8
  %7 = alloca i32, align 4
  %8 = alloca ptr, align 8
  %9 = alloca i32, align 4
  %10 = alloca ptr, align 8
  %11 = alloca ptr, align 8
  %12 = alloca i32, align 4
  %13 = alloca i32, align 4
  store ptr %0, ptr %5, align 8, !tbaa !36
  store ptr %1, ptr %6, align 8, !tbaa !36
  store i32 %2, ptr %7, align 4, !tbaa !19
  %14 = load ptr, ptr %5, align 8, !tbaa !36
  %15 = call i32 @Py_IS_TYPE(ptr noundef %14, ptr noundef @_PyInstructionSequence_Type)
  %16 = icmp ne i32 %15, 0
  br i1 %16, label %19, label %17

17:                                               ; preds = %3
  %18 = load ptr, ptr @PyExc_ValueError, align 8, !tbaa !36
  call void @PyErr_SetString(ptr noundef %18, ptr noundef @.str)
  store ptr null, ptr %4, align 8
  br label %48

19:                                               ; preds = %3
  call void @llvm.lifetime.start.p0(i64 8, ptr %8) #7
  %20 = call ptr @PyDict_New()
  store ptr %20, ptr %8, align 8, !tbaa !36
  %21 = load ptr, ptr %8, align 8, !tbaa !36
  %22 = icmp eq ptr %21, null
  br i1 %22, label %23, label %24

23:                                               ; preds = %19
  store ptr null, ptr %4, align 8
  store i32 1, ptr %9, align 4
  br label %47

24:                                               ; preds = %19
  call void @llvm.lifetime.start.p0(i64 8, ptr %10) #7
  store ptr null, ptr %10, align 8, !tbaa !36
  call void @llvm.lifetime.start.p0(i64 8, ptr %11) #7
  %25 = load ptr, ptr %5, align 8, !tbaa !36
  %26 = call ptr @_PyCfg_FromInstructionSequence(ptr noundef %25)
  store ptr %26, ptr %11, align 8, !tbaa !4
  %27 = load ptr, ptr %11, align 8, !tbaa !4
  %28 = icmp eq ptr %27, null
  br i1 %28, label %29, label %30

29:                                               ; preds = %24
  br label %43

30:                                               ; preds = %24
  store i32 0, ptr %12, align 4, !tbaa !19
  store i32 1, ptr %13, align 4, !tbaa !19
  %31 = load ptr, ptr %11, align 8, !tbaa !4
  %32 = load ptr, ptr %6, align 8, !tbaa !36
  %33 = load ptr, ptr %8, align 8, !tbaa !36
  %34 = load i32, ptr %7, align 4, !tbaa !19
  %35 = load i32, ptr %12, align 4, !tbaa !19
  %36 = load i32, ptr %13, align 4, !tbaa !19
  %37 = call i32 @_PyCfg_OptimizeCodeUnit(ptr noundef %31, ptr noundef %32, ptr noundef %33, i32 noundef %34, i32 noundef %35, i32 noundef %36)
  %38 = icmp slt i32 %37, 0
  br i1 %38, label %39, label %40

39:                                               ; preds = %30
  br label %43

40:                                               ; preds = %30
  %41 = load ptr, ptr %11, align 8, !tbaa !4
  %42 = call ptr @cfg_to_instruction_sequence(ptr noundef %41)
  store ptr %42, ptr %10, align 8, !tbaa !36
  br label %43

43:                                               ; preds = %40, %39, %29
  %44 = load ptr, ptr %8, align 8, !tbaa !36
  call void @Py_DECREF(ptr noundef %44)
  %45 = load ptr, ptr %11, align 8, !tbaa !4
  call void @_PyCfgBuilder_Free(ptr noundef %45)
  %46 = load ptr, ptr %10, align 8, !tbaa !36
  store ptr %46, ptr %4, align 8
  store i32 1, ptr %9, align 4
  call void @llvm.lifetime.end.p0(i64 8, ptr %11) #7
  call void @llvm.lifetime.end.p0(i64 8, ptr %10) #7
  br label %47

47:                                               ; preds = %43, %23
  call void @llvm.lifetime.end.p0(i64 8, ptr %8) #7
  br label %48

48:                                               ; preds = %47, %17
  %49 = load ptr, ptr %4, align 8
  ret ptr %49
}