; Function Attrs: nounwind uwtable
define dso_local ptr @_PyCompile_OptimizeCfg(ptr noundef %0, ptr noundef %1, i32 noundef %2) local_unnamed_addr #0 {
  %4 = getelementptr i8, ptr %0, i64 8
  %.val = load ptr, ptr %4, align 8, !tbaa !171
  %.not = icmp eq ptr %.val, @_PyInstructionSequence_Type
  br i1 %.not, label %7, label %5

5:                                                ; preds = %3
  %6 = load ptr, ptr @PyExc_ValueError, align 8, !tbaa !41
  tail call void @PyErr_SetString(ptr noundef %6, ptr noundef nonnull @.str) #8
  br label %_PyCfgBuilder_Free.exit

7:                                                ; preds = %3
  %8 = tail call ptr @PyDict_New() #8
  %9 = icmp eq ptr %8, null
  br i1 %9, label %_PyCfgBuilder_Free.exit, label %10

10:                                               ; preds = %7
  %11 = tail call ptr @_PyCfg_FromInstructionSequence(ptr noundef nonnull %0)
  %12 = icmp eq ptr %11, null
  br i1 %12, label %cfg_to_instruction_sequence.exit, label %13

13:                                               ; preds = %10
  %14 = tail call i32 @_PyCfg_OptimizeCodeUnit(ptr noundef nonnull %11, ptr noundef %1, ptr noundef nonnull %8, i32 noundef %2, i32 noundef 0, i32 poison)
  %15 = icmp slt i32 %14, 0
  br i1 %15, label %cfg_to_instruction_sequence.exit, label %16

16:                                               ; preds = %13
  %17 = tail call ptr @_PyInstructionSequence_New() #8
  %18 = icmp eq ptr %17, null
  br i1 %18, label %cfg_to_instruction_sequence.exit, label %19

19:                                               ; preds = %16
  %20 = tail call i32 @_PyCfg_ToInstructionSequence(ptr noundef nonnull readonly %11, ptr noundef nonnull %17)
  %21 = icmp slt i32 %20, 0
  br i1 %21, label %22, label %cfg_to_instruction_sequence.exit

22:                                               ; preds = %19
  tail call void @PyInstructionSequence_Fini(ptr noundef nonnull %17) #8
  br label %cfg_to_instruction_sequence.exit

cfg_to_instruction_sequence.exit:                 ; preds = %22, %19, %16, %13, %10
  %.014 = phi ptr [ null, %10 ], [ null, %13 ], [ null, %22 ], [ null, %16 ], [ %17, %19 ]
  %23 = load i32, ptr %8, align 8, !tbaa !55
  %.not.i = icmp sgt i32 %23, -1
  br i1 %.not.i, label %24, label %Py_DECREF.exit

24:                                               ; preds = %cfg_to_instruction_sequence.exit
  %25 = add nsw i32 %23, -1
  store i32 %25, ptr %8, align 8, !tbaa !55
  %26 = icmp eq i32 %25, 0
  br i1 %26, label %27, label %Py_DECREF.exit

27:                                               ; preds = %24
  tail call void @_Py_Dealloc(ptr noundef nonnull %8) #8
  br label %Py_DECREF.exit

Py_DECREF.exit:                                   ; preds = %cfg_to_instruction_sequence.exit, %24, %27
  br i1 %12, label %_PyCfgBuilder_Free.exit, label %28

28:                                               ; preds = %Py_DECREF.exit
  %29 = getelementptr inbounds nuw i8, ptr %11, i64 8
  %30 = load ptr, ptr %29, align 8, !tbaa !4
  %.not12.i = icmp eq ptr %30, null
  br i1 %.not12.i, label %._crit_edge.i, label %.lr.ph.i

.lr.ph.i:                                         ; preds = %28, %34
  %.013.i = phi ptr [ %35, %34 ], [ %30, %28 ]
  %31 = getelementptr inbounds nuw i8, ptr %.013.i, i64 24
  %32 = load ptr, ptr %31, align 8, !tbaa !20
  %.not11.i = icmp eq ptr %32, null
  br i1 %.not11.i, label %34, label %33

33:                                               ; preds = %.lr.ph.i
  tail call void @PyMem_Free(ptr noundef nonnull %32) #8
  br label %34

34:                                               ; preds = %33, %.lr.ph.i
  %35 = load ptr, ptr %.013.i, align 8, !tbaa !12
  tail call void @PyMem_Free(ptr noundef nonnull %.013.i) #8
  %.not.i17 = icmp eq ptr %35, null
  br i1 %.not.i17, label %._crit_edge.i, label %.lr.ph.i, !llvm.loop !21

._crit_edge.i:                                    ; preds = %34, %28
  tail call void @PyMem_Free(ptr noundef nonnull %11) #8
  br label %_PyCfgBuilder_Free.exit

_PyCfgBuilder_Free.exit:                          ; preds = %._crit_edge.i, %Py_DECREF.exit, %7, %5
  %.0 = phi ptr [ null, %5 ], [ null, %7 ], [ %.014, %Py_DECREF.exit ], [ %.014, %._crit_edge.i ]
  ret ptr %.0
}